target datalayout = "e-m:e-p270:32:32-p271:32:32-p272:64:64-i64:64-i128:128-f80:128-n8:16:32:64-S128"
target triple = "x86_64-pc-linux-gnu"

%struct.nstime_t = type { i64, i32 }
%struct.wtap = type { ptr, ptr, i32, i32, i32, ptr, ptr, ptr, i32, ptr, ptr, ptr, ptr, ptr, ptr, ptr, ptr, ptr, ptr, i32, i32, ptr, ptr, ptr, ptr }
%struct.nettrace_3gpp_32_423_file_info = type { ptr, i64, %struct.nstime_t }

@c_xml_magic = internal constant [6 x i8] c"<?xml\00", align 1
@c_file_header = internal constant [12 x i8] c"<fileHeader\00", align 1
@c_file_format_version = internal constant [20 x i8] c"fileFormatVersion=\22\00", align 16
@c_threegpp_doc_no = internal constant [7 x i8] c"32.423\00", align 1
@c_begin_time = internal constant [25 x i8] c"<traceCollec beginTime=\22\00", align 16
@nettrace_3gpp_32_423_file_type_subtype = internal global i32 -1, align 4

; Function Attrs: nounwind uwtable
define hidden i32 @nettrace_3gpp_32_423_file_open(ptr noundef %0, ptr noundef %1, ptr noundef %2) #0 {
  %4 = alloca i32, align 4
  %5 = alloca ptr, align 8
  %6 = alloca ptr, align 8
  %7 = alloca ptr, align 8
  %8 = alloca [1025 x i8], align 16
  %9 = alloca i32, align 4
  %10 = alloca ptr, align 8
  %11 = alloca %struct.nstime_t, align 8
  %12 = alloca ptr, align 8
  %13 = alloca i64, align 8
  store ptr %0, ptr %5, align 8
  store ptr %1, ptr %6, align 8
  store ptr %2, ptr %7, align 8
  %14 = load ptr, ptr %5, align 8
  %15 = getelementptr inbounds %struct.wtap, ptr %14, i32 0, i32 0
  %16 = load ptr, ptr %15, align 8
  %17 = call i64 @file_tell(ptr noundef %16)
  store i64 %17, ptr %13, align 8
  %18 = getelementptr inbounds [1025 x i8], ptr %8, i64 0, i64 0
  %19 = load ptr, ptr %5, align 8
  %20 = getelementptr inbounds %struct.wtap, ptr %19, i32 0, i32 0
  %21 = load ptr, ptr %20, align 8
  %22 = call i32 @file_read(ptr noundef %18, i32 noundef 1024, ptr noundef %21)
  store i32 %22, ptr %9, align 4
  %23 = load i32, ptr %9, align 4
  %24 = icmp slt i32 %23, 0
  br i1 %24, label %25, label %32

25:                                               ; preds = %3
  %26 = load ptr, ptr %5, align 8
  %27 = getelementptr inbounds %struct.wtap, ptr %26, i32 0, i32 0
  %28 = load ptr, ptr %27, align 8
  %29 = load ptr, ptr %7, align 8
  %30 = call i32 @file_error(ptr noundef %28, ptr noundef %29)
  %31 = load ptr, ptr %6, align 8
  store i32 %30, ptr %31, align 4
  store i32 -1, ptr %4, align 4
  br label %140

32:                                               ; preds = %3
  %33 = load i32, ptr %9, align 4
  %34 = icmp eq i32 %33, 0
  br i1 %34, label %35, label %36

35:                                               ; preds = %32
  store i32 0, ptr %4, align 4
  br label %140

36:                                               ; preds = %32
  %37 = getelementptr inbounds [1025 x i8], ptr %8, i64 0, i64 0
  %38 = call i32 @memcmp(ptr noundef %37, ptr noundef @c_xml_magic, i64 noundef 5) #8
  %39 = icmp ne i32 %38, 0
  br i1 %39, label %40, label %41

40:                                               ; preds = %36
  store i32 0, ptr %4, align 4
  br label %140

41:                                               ; preds = %36
  %42 = getelementptr inbounds [1025 x i8], ptr %8, i64 0, i64 0
  %43 = load i32, ptr %9, align 4
  %44 = sext i32 %43 to i64
  %45 = call ptr @g_strstr_len(ptr noundef %42, i64 noundef %44, ptr noundef @c_file_header)
  store ptr %45, ptr %10, align 8
  %46 = load ptr, ptr %10, align 8
  %47 = icmp ne ptr %46, null
  br i1 %47, label %49, label %48

48:                                               ; preds = %41
  store i32 0, ptr %4, align 4
  br label %140

49:                                               ; preds = %41
  %50 = load ptr, ptr %10, align 8
  %51 = load i32, ptr %9, align 4
  %52 = sext i32 %51 to i64
  %53 = load ptr, ptr %10, align 8
  %54 = getelementptr inbounds [1025 x i8], ptr %8, i64 0, i64 0
  %55 = ptrtoint ptr %53 to i64
  %56 = ptrtoint ptr %54 to i64
  %57 = sub i64 %55, %56
  %58 = sub i64 %52, %57
  %59 = call ptr @g_strstr_len(ptr noundef %50, i64 noundef %58, ptr noundef @c_file_format_version)
  store ptr %59, ptr %10, align 8
  %60 = load ptr, ptr %10, align 8
  %61 = icmp ne ptr %60, null
  br i1 %61, label %63, label %62

62:                                               ; preds = %49
  store i32 0, ptr %4, align 4
  br label %140

63:                                               ; preds = %49
  %64 = load ptr, ptr %10, align 8
  %65 = getelementptr i8, ptr %64, i64 19
  store ptr %65, ptr %10, align 8
  %66 = load ptr, ptr %10, align 8
  %67 = call i32 @memcmp(ptr noundef %66, ptr noundef @c_threegpp_doc_no, i64 noundef 6) #8
  %68 = icmp ne i32 %67, 0
  br i1 %68, label %69, label %70

69:                                               ; preds = %63
  store i32 0, ptr %4, align 4
  br label %140

70:                                               ; preds = %63
  %71 = load ptr, ptr %10, align 8
  %72 = load i32, ptr %9, align 4
  %73 = sext i32 %72 to i64
  %74 = load ptr, ptr %10, align 8
  %75 = getelementptr inbounds [1025 x i8], ptr %8, i64 0, i64 0
  %76 = ptrtoint ptr %74 to i64
  %77 = ptrtoint ptr %75 to i64
  %78 = sub i64 %76, %77
  %79 = sub i64 %73, %78
  %80 = call ptr @g_strstr_len(ptr noundef %71, i64 noundef %79, ptr noundef @c_begin_time)
  store ptr %80, ptr %10, align 8
  %81 = load ptr, ptr %10, align 8
  %82 = icmp ne ptr %81, null
  br i1 %82, label %84, label %83

83:                                               ; preds = %70
  store i32 0, ptr %4, align 4
  br label %140

84:                                               ; preds = %70
  %85 = load ptr, ptr %10, align 8
  %86 = getelementptr i8, ptr %85, i64 24
  store ptr %86, ptr %10, align 8
  %87 = load ptr, ptr %10, align 8
  %88 = call ptr @iso8601_to_nstime(ptr noundef %11, ptr noundef %87, i32 noundef 0)
  store ptr %88, ptr %10, align 8
  %89 = load ptr, ptr %10, align 8
  %90 = icmp ne ptr %89, null
  br i1 %90, label %92, label %91

91:                                               ; preds = %84
  store i32 0, ptr %4, align 4
  br label %140

92:                                               ; preds = %84
  %93 = call noalias ptr @g_malloc0_n(i64 noundef 1, i64 noundef 32) #9
  store ptr %93, ptr %12, align 8
  %94 = load ptr, ptr %12, align 8
  %95 = getelementptr inbounds %struct.nettrace_3gpp_32_423_file_info, ptr %94, i32 0, i32 2
  call void @llvm.memcpy.p0.p0.i64(ptr align 8 %95, ptr align 8 %11, i64 16, i1 false)
  %96 = load i64, ptr %13, align 8
  %97 = load ptr, ptr %10, align 8
  %98 = getelementptr inbounds [1025 x i8], ptr %8, i64 0, i64 0
  %99 = ptrtoint ptr %97 to i64
  %100 = ptrtoint ptr %98 to i64
  %101 = sub i64 %99, %100
  %102 = add i64 %96, %101
  %103 = load ptr, ptr %12, align 8
  %104 = getelementptr inbounds %struct.nettrace_3gpp_32_423_file_info, ptr %103, i32 0, i32 1
  store i64 %102, ptr %104, align 8
  %105 = call ptr @g_byte_array_sized_new(i32 noundef 2147483647)
  %106 = load ptr, ptr %12, align 8
  %107 = getelementptr inbounds %struct.nettrace_3gpp_32_423_file_info, ptr %106, i32 0, i32 0
  store ptr %105, ptr %107, align 8
  %108 = load ptr, ptr %12, align 8
  %109 = getelementptr inbounds %struct.nettrace_3gpp_32_423_file_info, ptr %108, i32 0, i32 0
  %110 = load ptr, ptr %109, align 8
  %111 = load ptr, ptr %10, align 8
  %112 = load i32, ptr %9, align 4
  %113 = sext i32 %112 to i64
  %114 = load ptr, ptr %10, align 8
  %115 = getelementptr inbounds [1025 x i8], ptr %8, i64 0, i64 0
  %116 = ptrtoint ptr %114 to i64
  %117 = ptrtoint ptr %115 to i64
  %118 = sub i64 %116, %117
  %119 = sub i64 %113, %118
  %120 = trunc i64 %119 to i32
  %121 = call ptr @g_byte_array_append(ptr noundef %110, ptr noundef %111, i32 noundef %120)
  %122 = load i32, ptr @nettrace_3gpp_32_423_file_type_subtype, align 4
  %123 = load ptr, ptr %5, align 8
  %124 = getelementptr inbounds %struct.wtap, ptr %123, i32 0, i32 3
  store i32 %122, ptr %124, align 4
  %125 = load ptr, ptr %5, align 8
  %126 = getelementptr inbounds %struct.wtap, ptr %125, i32 0, i32 19
  store i32 155, ptr %126, align 8
  %127 = load ptr, ptr %5, align 8
  %128 = getelementptr inbounds %struct.wtap, ptr %127, i32 0, i32 20
  store i32 3, ptr %128, align 4
  %129 = load ptr, ptr %5, align 8
  %130 = getelementptr inbounds %struct.wtap, ptr %129, i32 0, i32 15
  store ptr @nettrace_read, ptr %130, align 8
  %131 = load ptr, ptr %5, align 8
  %132 = getelementptr inbounds %struct.wtap, ptr %131, i32 0, i32 16
  store ptr @nettrace_seek_read, ptr %132, align 8
  %133 = load ptr, ptr %5, align 8
  %134 = getelementptr inbounds %struct.wtap, ptr %133, i32 0, i32 18
  store ptr @nettrace_close, ptr %134, align 8
  %135 = load ptr, ptr %5, align 8
  %136 = getelementptr inbounds %struct.wtap, ptr %135, i32 0, i32 4
  store i32 0, ptr %136, align 8
  %137 = load ptr, ptr %12, align 8
  %138 = load ptr, ptr %5, align 8
  %139 = getelementptr inbounds %struct.wtap, ptr %138, i32 0, i32 13
  store ptr %137, ptr %139, align 8
  store i32 1, ptr %4, align 4
  br label %140

140:                                              ; preds = %92, %91, %83, %69, %62, %48, %40, %35, %25
  %141 = load i32, ptr %4, align 4
  ret i32 %141
}