; Function Attrs: nounwind uwtable
define hidden range(i32 -1, 2) i32 @nettrace_3gpp_32_423_file_open(ptr noundef captures(none) %0, ptr noundef writeonly captures(none) %1, ptr noundef %2) local_unnamed_addr #0 {
  %4 = alloca [1025 x i8], align 16
  %5 = alloca %struct.nstime_t, align 8
  %6 = load ptr, ptr %0, align 8
  %7 = tail call i64 @file_tell(ptr noundef %6) #11
  %8 = load ptr, ptr %0, align 8
  %9 = call i32 @file_read(ptr noundef nonnull %4, i32 noundef 1024, ptr noundef %8) #11
  %10 = icmp slt i32 %9, 0
  br i1 %10, label %11, label %14

11:                                               ; preds = %3
  %12 = load ptr, ptr %0, align 8
  %13 = call i32 @file_error(ptr noundef %12, ptr noundef %2) #11
  store i32 %13, ptr %1, align 4
  br label %54

14:                                               ; preds = %3
  %15 = icmp eq i32 %9, 0
  br i1 %15, label %54, label %16

16:                                               ; preds = %14
  %bcmp = call i32 @bcmp(ptr noundef nonnull dereferenceable(5) %4, ptr noundef nonnull dereferenceable(5) @c_xml_magic, i64 5)
  %.not = icmp eq i32 %bcmp, 0
  br i1 %.not, label %17, label %54

17:                                               ; preds = %16
  %18 = zext nneg i32 %9 to i64
  %19 = call ptr @g_strstr_len(ptr noundef nonnull %4, i64 noundef %18, ptr noundef nonnull @c_file_header) #11
  %.not45 = icmp eq ptr %19, null
  br i1 %.not45, label %54, label %20

20:                                               ; preds = %17
  %21 = ptrtoint ptr %19 to i64
  %22 = ptrtoint ptr %4 to i64
  %.neg = add i64 %18, %22
  %23 = sub i64 %.neg, %21
  %24 = call ptr @g_strstr_len(ptr noundef nonnull %19, i64 noundef %23, ptr noundef nonnull @c_file_format_version) #11
  %.not46 = icmp eq ptr %24, null
  br i1 %.not46, label %54, label %25

25:                                               ; preds = %20
  %26 = getelementptr i8, ptr %24, i64 19
  %bcmp47 = call i32 @bcmp(ptr noundef nonnull dereferenceable(6) %26, ptr noundef nonnull dereferenceable(6) @c_threegpp_doc_no, i64 6)
  %.not48 = icmp eq i32 %bcmp47, 0
  br i1 %.not48, label %27, label %54

27:                                               ; preds = %25
  %28 = ptrtoint ptr %26 to i64
  %29 = sub i64 %.neg, %28
  %30 = call ptr @g_strstr_len(ptr noundef nonnull %26, i64 noundef %29, ptr noundef nonnull @c_begin_time) #11
  %.not50 = icmp eq ptr %30, null
  br i1 %.not50, label %54, label %31

31:                                               ; preds = %27
  %32 = getelementptr i8, ptr %30, i64 24
  %33 = call ptr @iso8601_to_nstime(ptr noundef nonnull %5, ptr noundef %32, i32 noundef 0) #11
  %.not51 = icmp eq ptr %33, null
  br i1 %.not51, label %54, label %34

34:                                               ; preds = %31
  %35 = call noalias dereferenceable_or_null(32) ptr @g_malloc0_n(i64 noundef 1, i64 noundef 32) #12
  %36 = getelementptr inbounds nuw i8, ptr %35, i64 16
  call void @llvm.memcpy.p0.p0.i64(ptr noundef nonnull align 8 dereferenceable(16) %36, ptr noundef nonnull align 8 dereferenceable(16) %5, i64 16, i1 false)
  %37 = ptrtoint ptr %33 to i64
  %38 = sub i64 %37, %22
  %39 = add i64 %38, %7
  %40 = getelementptr inbounds nuw i8, ptr %35, i64 8
  store i64 %39, ptr %40, align 8
  %41 = call ptr @g_byte_array_sized_new(i32 noundef 2147483647) #11
  store ptr %41, ptr %35, align 8
  %42 = trunc i64 %38 to i32
  %43 = sub i32 %9, %42
  %44 = call ptr @g_byte_array_append(ptr noundef %41, ptr noundef nonnull %33, i32 noundef %43) #11
  %45 = load i32, ptr @nettrace_3gpp_32_423_file_type_subtype, align 4
  %46 = getelementptr inbounds nuw i8, ptr %0, i64 20
  store i32 %45, ptr %46, align 4
  %47 = getelementptr inbounds nuw i8, ptr %0, i64 144
  store i32 155, ptr %47, align 8
  %48 = getelementptr inbounds nuw i8, ptr %0, i64 148
  store i32 3, ptr %48, align 4
  %49 = getelementptr inbounds nuw i8, ptr %0, i64 112
  store ptr @nettrace_read, ptr %49, align 8
  %50 = getelementptr inbounds nuw i8, ptr %0, i64 120
  store ptr @nettrace_seek_read, ptr %50, align 8
  %51 = getelementptr inbounds nuw i8, ptr %0, i64 136
  store ptr @nettrace_close, ptr %51, align 8
  %52 = getelementptr inbounds nuw i8, ptr %0, i64 24
  store i32 0, ptr %52, align 8
  %53 = getelementptr inbounds nuw i8, ptr %0, i64 96
  store ptr %35, ptr %53, align 8
  br label %54

54:                                               ; preds = %31, %27, %25, %20, %17, %16, %14, %34, %11
  %.0 = phi i32 [ -1, %11 ], [ 1, %34 ], [ 0, %14 ], [ 0, %16 ], [ 0, %17 ], [ 0, %20 ], [ 0, %25 ], [ 0, %27 ], [ 0, %31 ]
  ret i32 %.0
}